target datalayout = "e-m:e-p270:32:32-p271:32:32-p272:64:64-i64:64-i128:128-f80:128-n8:16:32:64-S128"
target triple = "x86_64-pc-linux-gnu"

%struct.Node = type { i32 }
%struct.Plan = type { i32, i32, double, double, double, i32, i8, i8, i8, i32, ptr, ptr, ptr, ptr, ptr, ptr, ptr }
%struct.ForEachState = type { ptr, i32 }
%struct.List = type { i32, i32, i32, ptr, [0 x %union.ListCell] }
%union.ListCell = type { ptr }
%struct.TargetEntry = type { %struct.Expr, ptr, i16, ptr, i32, i32, i16, i8 }
%struct.Expr = type { i32 }
%struct.SortGroupClause = type { i32, i32, i32, i32, i8, i8, i8 }
%struct.Sort = type { %struct.Plan, i32, ptr, ptr, ptr, ptr }

@enable_sort = external global i8, align 1

; Function Attrs: inlinehint nounwind uwtable
define internal ptr @newNode(i64 noundef %0, i32 noundef %1) #4 {
  %3 = alloca i64, align 8
  %4 = alloca i32, align 4
  %5 = alloca ptr, align 8
  store i64 %0, ptr %3, align 8
  store i32 %1, ptr %4, align 4
  call void @llvm.lifetime.start.p0(i64 8, ptr %5) #10
  %6 = load i64, ptr %3, align 8
  %7 = call ptr @palloc0(i64 noundef %6)
  store ptr %7, ptr %5, align 8
  %8 = load i32, ptr %4, align 4
  %9 = load ptr, ptr %5, align 8
  %10 = getelementptr inbounds nuw %struct.Node, ptr %9, i32 0, i32 0
  store i32 %8, ptr %10, align 4
  %11 = load ptr, ptr %5, align 8
  call void @llvm.lifetime.end.p0(i64 8, ptr %5) #10
  ret ptr %11
}

; Function Attrs: nounwind uwtable
define internal ptr @make_sort(ptr noundef %0, i32 noundef %1, ptr noundef %2, ptr noundef %3, ptr noundef %4, ptr noundef %5) #0 {
  %7 = alloca ptr, align 8
  %8 = alloca i32, align 4
  %9 = alloca ptr, align 8
  %10 = alloca ptr, align 8
  %11 = alloca ptr, align 8
  %12 = alloca ptr, align 8
  %13 = alloca ptr, align 8
  %14 = alloca ptr, align 8
  store ptr %0, ptr %7, align 8
  store i32 %1, ptr %8, align 4
  store ptr %2, ptr %9, align 8
  store ptr %3, ptr %10, align 8
  store ptr %4, ptr %11, align 8
  store ptr %5, ptr %12, align 8
  call void @llvm.lifetime.start.p0(i64 8, ptr %13) #10
  call void @llvm.lifetime.start.p0(i64 8, ptr %14) #10
  %15 = call ptr @newNode(i64 noundef 144, i32 noundef 361)
  store ptr %15, ptr %13, align 8
  %16 = load ptr, ptr %13, align 8
  %17 = getelementptr inbounds nuw %struct.Sort, ptr %16, i32 0, i32 0
  store ptr %17, ptr %14, align 8
  %18 = load ptr, ptr %7, align 8
  %19 = getelementptr inbounds nuw %struct.Plan, ptr %18, i32 0, i32 10
  %20 = load ptr, ptr %19, align 8
  %21 = load ptr, ptr %14, align 8
  %22 = getelementptr inbounds nuw %struct.Plan, ptr %21, i32 0, i32 10
  store ptr %20, ptr %22, align 8
  %23 = load ptr, ptr %7, align 8
  %24 = getelementptr inbounds nuw %struct.Plan, ptr %23, i32 0, i32 1
  %25 = load i32, ptr %24, align 4
  %26 = load i8, ptr @enable_sort, align 1, !range !4, !noundef !5
  %27 = trunc i8 %26 to i1
  %28 = zext i1 %27 to i32
  %29 = icmp eq i32 %28, 0
  %30 = zext i1 %29 to i32
  %31 = add i32 %25, %30
  %32 = load ptr, ptr %14, align 8
  %33 = getelementptr inbounds nuw %struct.Plan, ptr %32, i32 0, i32 1
  store i32 %31, ptr %33, align 4
  %34 = load ptr, ptr %14, align 8
  %35 = getelementptr inbounds nuw %struct.Plan, ptr %34, i32 0, i32 11
  store ptr null, ptr %35, align 8
  %36 = load ptr, ptr %7, align 8
  %37 = load ptr, ptr %14, align 8
  %38 = getelementptr inbounds nuw %struct.Plan, ptr %37, i32 0, i32 12
  store ptr %36, ptr %38, align 8
  %39 = load ptr, ptr %14, align 8
  %40 = getelementptr inbounds nuw %struct.Plan, ptr %39, i32 0, i32 13
  store ptr null, ptr %40, align 8
  %41 = load i32, ptr %8, align 4
  %42 = load ptr, ptr %13, align 8
  %43 = getelementptr inbounds nuw %struct.Sort, ptr %42, i32 0, i32 1
  store i32 %41, ptr %43, align 8
  %44 = load ptr, ptr %9, align 8
  %45 = load ptr, ptr %13, align 8
  %46 = getelementptr inbounds nuw %struct.Sort, ptr %45, i32 0, i32 2
  store ptr %44, ptr %46, align 8
  %47 = load ptr, ptr %10, align 8
  %48 = load ptr, ptr %13, align 8
  %49 = getelementptr inbounds nuw %struct.Sort, ptr %48, i32 0, i32 3
  store ptr %47, ptr %49, align 8
  %50 = load ptr, ptr %11, align 8
  %51 = load ptr, ptr %13, align 8
  %52 = getelementptr inbounds nuw %struct.Sort, ptr %51, i32 0, i32 4
  store ptr %50, ptr %52, align 8
  %53 = load ptr, ptr %12, align 8
  %54 = load ptr, ptr %13, align 8
  %55 = getelementptr inbounds nuw %struct.Sort, ptr %54, i32 0, i32 5
  store ptr %53, ptr %55, align 8
  %56 = load ptr, ptr %13, align 8
  call void @llvm.lifetime.end.p0(i64 8, ptr %14) #10
  call void @llvm.lifetime.end.p0(i64 8, ptr %13) #10
  ret ptr %56
}

; Function Attrs: inlinehint nounwind uwtable
define internal i32 @list_length(ptr noundef %0) #4 {
  %2 = alloca ptr, align 8
  store ptr %0, ptr %2, align 8
  %3 = load ptr, ptr %2, align 8
  %4 = icmp ne ptr %3, null
  br i1 %4, label %5, label %9

5:                                                ; preds = %1
  %6 = load ptr, ptr %2, align 8
  %7 = getelementptr inbounds nuw %struct.List, ptr %6, i32 0, i32 1
  %8 = load i32, ptr %7, align 4
  br label %10

9:                                                ; preds = %1
  br label %10

10:                                               ; preds = %9, %5
  %11 = phi i32 [ %8, %5 ], [ 0, %9 ]
  ret i32 %11
}

; Function Attrs: nounwind uwtable
define dso_local ptr @make_sort_from_sortclauses(ptr noundef %0, ptr noundef %1) #0 {
  %3 = alloca ptr, align 8
  %4 = alloca ptr, align 8
  %5 = alloca ptr, align 8
  %6 = alloca ptr, align 8
  %7 = alloca i32, align 4
  %8 = alloca ptr, align 8
  %9 = alloca ptr, align 8
  %10 = alloca ptr, align 8
  %11 = alloca ptr, align 8
  %12 = alloca %struct.ForEachState, align 8
  %13 = alloca ptr, align 8
  %14 = alloca ptr, align 8
  store ptr %0, ptr %3, align 8
  store ptr %1, ptr %4, align 8
  call void @llvm.lifetime.start.p0(i64 8, ptr %5) #10
  %15 = load ptr, ptr %4, align 8
  %16 = getelementptr inbounds nuw %struct.Plan, ptr %15, i32 0, i32 10
  %17 = load ptr, ptr %16, align 8
  store ptr %17, ptr %5, align 8
  call void @llvm.lifetime.start.p0(i64 8, ptr %6) #10
  call void @llvm.lifetime.start.p0(i64 4, ptr %7) #10
  call void @llvm.lifetime.start.p0(i64 8, ptr %8) #10
  call void @llvm.lifetime.start.p0(i64 8, ptr %9) #10
  call void @llvm.lifetime.start.p0(i64 8, ptr %10) #10
  call void @llvm.lifetime.start.p0(i64 8, ptr %11) #10
  %18 = load ptr, ptr %3, align 8
  %19 = call i32 @list_length(ptr noundef %18)
  store i32 %19, ptr %7, align 4
  %20 = load i32, ptr %7, align 4
  %21 = sext i32 %20 to i64
  %22 = mul i64 %21, 2
  %23 = call ptr @palloc(i64 noundef %22)
  store ptr %23, ptr %8, align 8
  %24 = load i32, ptr %7, align 4
  %25 = sext i32 %24 to i64
  %26 = mul i64 %25, 4
  %27 = call ptr @palloc(i64 noundef %26)
  store ptr %27, ptr %9, align 8
  %28 = load i32, ptr %7, align 4
  %29 = sext i32 %28 to i64
  %30 = mul i64 %29, 4
  %31 = call ptr @palloc(i64 noundef %30)
  store ptr %31, ptr %10, align 8
  %32 = load i32, ptr %7, align 4
  %33 = sext i32 %32 to i64
  %34 = mul i64 %33, 1
  %35 = call ptr @palloc(i64 noundef %34)
  store ptr %35, ptr %11, align 8
  store i32 0, ptr %7, align 4
  call void @llvm.lifetime.start.p0(i64 16, ptr %12) #10
  %36 = getelementptr inbounds nuw %struct.ForEachState, ptr %12, i32 0, i32 0
  %37 = load ptr, ptr %3, align 8
  store ptr %37, ptr %36, align 8
  %38 = getelementptr inbounds nuw %struct.ForEachState, ptr %12, i32 0, i32 1
  store i32 0, ptr %38, align 8
  %39 = getelementptr i8, ptr %12, i64 12
  call void @llvm.memset.p0.i64(ptr align 4 %39, i8 0, i64 4, i1 false)
  br label %40

40:                                               ; preds = %105, %2
  %41 = getelementptr inbounds nuw %struct.ForEachState, ptr %12, i32 0, i32 0
  %42 = load ptr, ptr %41, align 8
  %43 = icmp ne ptr %42, null
  br i1 %43, label %44, label %61

44:                                               ; preds = %40
  %45 = getelementptr inbounds nuw %struct.ForEachState, ptr %12, i32 0, i32 1
  %46 = load i32, ptr %45, align 8
  %47 = getelementptr inbounds nuw %struct.ForEachState, ptr %12, i32 0, i32 0
  %48 = load ptr, ptr %47, align 8
  %49 = getelementptr inbounds nuw %struct.List, ptr %48, i32 0, i32 1
  %50 = load i32, ptr %49, align 4
  %51 = icmp slt i32 %46, %50
  br i1 %51, label %52, label %61

52:                                               ; preds = %44
  %53 = getelementptr inbounds nuw %struct.ForEachState, ptr %12, i32 0, i32 0
  %54 = load ptr, ptr %53, align 8
  %55 = getelementptr inbounds nuw %struct.List, ptr %54, i32 0, i32 3
  %56 = load ptr, ptr %55, align 8
  %57 = getelementptr inbounds nuw %struct.ForEachState, ptr %12, i32 0, i32 1
  %58 = load i32, ptr %57, align 8
  %59 = sext i32 %58 to i64
  %60 = getelementptr inbounds %union.ListCell, ptr %56, i64 %59
  store ptr %60, ptr %6, align 8
  br label %62

61:                                               ; preds = %44, %40
  store ptr null, ptr %6, align 8
  br label %62

62:                                               ; preds = %61, %52
  %63 = phi i32 [ 1, %52 ], [ 0, %61 ]
  %64 = icmp ne i32 %63, 0
  br i1 %64, label %66, label %65

65:                                               ; preds = %62
  call void @llvm.lifetime.end.p0(i64 16, ptr %12) #10
  br label %109

66:                                               ; preds = %62
  call void @llvm.lifetime.start.p0(i64 8, ptr %13) #10
  %67 = load ptr, ptr %6, align 8
  %68 = load ptr, ptr %67, align 8
  store ptr %68, ptr %13, align 8
  call void @llvm.lifetime.start.p0(i64 8, ptr %14) #10
  %69 = load ptr, ptr %13, align 8
  %70 = load ptr, ptr %5, align 8
  %71 = call ptr @get_sortgroupclause_tle(ptr noundef %69, ptr noundef %70)
  store ptr %71, ptr %14, align 8
  %72 = load ptr, ptr %14, align 8
  %73 = getelementptr inbounds nuw %struct.TargetEntry, ptr %72, i32 0, i32 2
  %74 = load i16, ptr %73, align 8
  %75 = load ptr, ptr %8, align 8
  %76 = load i32, ptr %7, align 4
  %77 = sext i32 %76 to i64
  %78 = getelementptr inbounds i16, ptr %75, i64 %77
  store i16 %74, ptr %78, align 2
  %79 = load ptr, ptr %13, align 8
  %80 = getelementptr inbounds nuw %struct.SortGroupClause, ptr %79, i32 0, i32 3
  %81 = load i32, ptr %80, align 4
  %82 = load ptr, ptr %9, align 8
  %83 = load i32, ptr %7, align 4
  %84 = sext i32 %83 to i64
  %85 = getelementptr inbounds i32, ptr %82, i64 %84
  store i32 %81, ptr %85, align 4
  %86 = load ptr, ptr %14, align 8
  %87 = getelementptr inbounds nuw %struct.TargetEntry, ptr %86, i32 0, i32 1
  %88 = load ptr, ptr %87, align 8
  %89 = call i32 @exprCollation(ptr noundef %88)
  %90 = load ptr, ptr %10, align 8
  %91 = load i32, ptr %7, align 4
  %92 = sext i32 %91 to i64
  %93 = getelementptr inbounds i32, ptr %90, i64 %92
  store i32 %89, ptr %93, align 4
  %94 = load ptr, ptr %13, align 8
  %95 = getelementptr inbounds nuw %struct.SortGroupClause, ptr %94, i32 0, i32 5
  %96 = load i8, ptr %95, align 1, !range !4, !noundef !5
  %97 = trunc i8 %96 to i1
  %98 = load ptr, ptr %11, align 8
  %99 = load i32, ptr %7, align 4
  %100 = sext i32 %99 to i64
  %101 = getelementptr inbounds i8, ptr %98, i64 %100
  %102 = zext i1 %97 to i8
  store i8 %102, ptr %101, align 1
  %103 = load i32, ptr %7, align 4
  %104 = add i32 %103, 1
  store i32 %104, ptr %7, align 4
  call void @llvm.lifetime.end.p0(i64 8, ptr %14) #10
  call void @llvm.lifetime.end.p0(i64 8, ptr %13) #10
  br label %105

105:                                              ; preds = %66
  %106 = getelementptr inbounds nuw %struct.ForEachState, ptr %12, i32 0, i32 1
  %107 = load i32, ptr %106, align 8
  %108 = add i32 %107, 1
  store i32 %108, ptr %106, align 8
  br label %40, !llvm.loop !6

109:                                              ; preds = %65
  %110 = load ptr, ptr %4, align 8
  %111 = load i32, ptr %7, align 4
  %112 = load ptr, ptr %8, align 8
  %113 = load ptr, ptr %9, align 8
  %114 = load ptr, ptr %10, align 8
  %115 = load ptr, ptr %11, align 8
  %116 = call ptr @make_sort(ptr noundef %110, i32 noundef %111, ptr noundef %112, ptr noundef %113, ptr noundef %114, ptr noundef %115)
  call void @llvm.lifetime.end.p0(i64 8, ptr %11) #10
  call void @llvm.lifetime.end.p0(i64 8, ptr %10) #10
  call void @llvm.lifetime.end.p0(i64 8, ptr %9) #10
  call void @llvm.lifetime.end.p0(i64 8, ptr %8) #10
  call void @llvm.lifetime.end.p0(i64 4, ptr %7) #10
  call void @llvm.lifetime.end.p0(i64 8, ptr %6) #10
  call void @llvm.lifetime.end.p0(i64 8, ptr %5) #10
  ret ptr %116
}