; Function Attrs: nounwind uwtable
define dso_local noundef ptr @make_sort_from_sortclauses(ptr noundef readonly captures(address_is_null) %0, ptr noundef %1) local_unnamed_addr #0 {
  %3 = getelementptr inbounds nuw i8, ptr %1, i64 48
  %4 = load ptr, ptr %3, align 8
  %.not.i = icmp eq ptr %0, null
  br i1 %.not.i, label %list_length.exit, label %5

5:                                                ; preds = %2
  %6 = getelementptr inbounds nuw i8, ptr %0, i64 4
  %7 = load i32, ptr %6, align 4
  %8 = sext i32 %7 to i64
  br label %list_length.exit

list_length.exit:                                 ; preds = %2, %5
  %9 = phi i64 [ %8, %5 ], [ 0, %2 ]
  %10 = shl nsw i64 %9, 1
  %11 = tail call ptr @palloc(i64 noundef %10) #12
  %12 = shl nsw i64 %9, 2
  %13 = tail call ptr @palloc(i64 noundef %12) #12
  %14 = tail call ptr @palloc(i64 noundef %12) #12
  %15 = tail call ptr @palloc(i64 noundef %9) #12
  %16 = getelementptr inbounds nuw i8, ptr %0, i64 4
  br i1 %.not.i, label %._crit_edge, label %.lr.ph

.lr.ph:                                           ; preds = %list_length.exit
  %17 = getelementptr inbounds nuw i8, ptr %0, i64 16
  %18 = load i32, ptr %16, align 4
  %19 = icmp sgt i32 %18, 0
  br i1 %19, label %.lr.ph44, label %._crit_edge

._crit_edge.loopexit:                             ; preds = %.lr.ph44
  %20 = trunc nuw nsw i64 %indvars.iv.next to i32
  br label %._crit_edge

._crit_edge:                                      ; preds = %._crit_edge.loopexit, %.lr.ph, %list_length.exit
  %.032.lcssa = phi i32 [ 0, %list_length.exit ], [ 0, %.lr.ph ], [ %20, %._crit_edge.loopexit ]
  %21 = tail call noundef ptr @palloc0(i64 noundef 144) #12
  store i32 361, ptr %21, align 4
  %22 = load ptr, ptr %3, align 8
  %23 = getelementptr inbounds nuw i8, ptr %21, i64 48
  store ptr %22, ptr %23, align 8
  %24 = getelementptr inbounds nuw i8, ptr %1, i64 4
  %25 = load i32, ptr %24, align 4
  %26 = load i8, ptr @enable_sort, align 1, !range !4, !noundef !5
  %27 = xor i8 %26, 1
  %28 = zext nneg i8 %27 to i32
  %29 = add i32 %25, %28
  %30 = getelementptr inbounds nuw i8, ptr %21, i64 4
  store i32 %29, ptr %30, align 4
  %31 = getelementptr inbounds nuw i8, ptr %21, i64 56
  store ptr null, ptr %31, align 8
  %32 = getelementptr inbounds nuw i8, ptr %21, i64 64
  store ptr %1, ptr %32, align 8
  %33 = getelementptr inbounds nuw i8, ptr %21, i64 72
  store ptr null, ptr %33, align 8
  %34 = getelementptr inbounds nuw i8, ptr %21, i64 104
  store i32 %.032.lcssa, ptr %34, align 8
  %35 = getelementptr inbounds nuw i8, ptr %21, i64 112
  store ptr %11, ptr %35, align 8
  %36 = getelementptr inbounds nuw i8, ptr %21, i64 120
  store ptr %13, ptr %36, align 8
  %37 = getelementptr inbounds nuw i8, ptr %21, i64 128
  store ptr %14, ptr %37, align 8
  %38 = getelementptr inbounds nuw i8, ptr %21, i64 136
  store ptr %15, ptr %38, align 8
  ret ptr %21

.lr.ph44:                                         ; preds = %.lr.ph, %.lr.ph44
  %indvars.iv = phi i64 [ %indvars.iv.next, %.lr.ph44 ], [ 0, %.lr.ph ]
  %39 = load ptr, ptr %17, align 8
  %40 = getelementptr inbounds nuw %union.ListCell, ptr %39, i64 %indvars.iv
  %41 = load ptr, ptr %40, align 8
  %42 = tail call ptr @get_sortgroupclause_tle(ptr noundef %41, ptr noundef %4) #12
  %43 = getelementptr inbounds nuw i8, ptr %42, i64 16
  %44 = load i16, ptr %43, align 8
  %45 = getelementptr inbounds nuw i16, ptr %11, i64 %indvars.iv
  store i16 %44, ptr %45, align 2
  %46 = getelementptr inbounds nuw i8, ptr %41, i64 12
  %47 = load i32, ptr %46, align 4
  %48 = getelementptr inbounds nuw i32, ptr %13, i64 %indvars.iv
  store i32 %47, ptr %48, align 4
  %49 = getelementptr inbounds nuw i8, ptr %42, i64 8
  %50 = load ptr, ptr %49, align 8
  %51 = tail call i32 @exprCollation(ptr noundef %50) #12
  %52 = getelementptr inbounds nuw i32, ptr %14, i64 %indvars.iv
  store i32 %51, ptr %52, align 4
  %53 = getelementptr inbounds nuw i8, ptr %41, i64 17
  %54 = load i8, ptr %53, align 1, !range !4, !noundef !5
  %55 = getelementptr inbounds nuw i8, ptr %15, i64 %indvars.iv
  store i8 %54, ptr %55, align 1
  %indvars.iv.next = add nuw nsw i64 %indvars.iv, 1
  %56 = load i32, ptr %16, align 4
  %57 = sext i32 %56 to i64
  %58 = icmp slt i64 %indvars.iv.next, %57
  br i1 %58, label %.lr.ph44, label %._crit_edge.loopexit
}